target datalayout = "e-m:e-p270:32:32-p271:32:32-p272:64:64-i64:64-i128:128-f80:128-n8:16:32:64-S128"
target triple = "x86_64-pc-linux-gnu"

%"class.cv::SparseMatConstIterator" = type { ptr, i64, ptr }
%"class.cv::SparseMat" = type { i32, ptr }
%"struct.cv::SparseMat::Hdr" = type { i32, i32, i32, i64, i64, i64, %"class.std::vector", %"class.std::vector.3", [32 x i32] }
%"class.std::vector" = type { %"struct.std::_Vector_base" }
%"struct.std::_Vector_base" = type { %"struct.std::_Vector_base<unsigned char, std::allocator<unsigned char>>::_Vector_impl" }
%"struct.std::_Vector_base<unsigned char, std::allocator<unsigned char>>::_Vector_impl" = type { %"struct.std::_Vector_base<unsigned char, std::allocator<unsigned char>>::_Vector_impl_data" }
%"struct.std::_Vector_base<unsigned char, std::allocator<unsigned char>>::_Vector_impl_data" = type { ptr, ptr, ptr }
%"class.std::vector.3" = type { %"struct.std::_Vector_base.4" }
%"struct.std::_Vector_base.4" = type { %"struct.std::_Vector_base<unsigned long, std::allocator<unsigned long>>::_Vector_impl" }
%"struct.std::_Vector_base<unsigned long, std::allocator<unsigned long>>::_Vector_impl" = type { %"struct.std::_Vector_base<unsigned long, std::allocator<unsigned long>>::_Vector_impl_data" }
%"struct.std::_Vector_base<unsigned long, std::allocator<unsigned long>>::_Vector_impl_data" = type { ptr, ptr, ptr }

; Function Attrs: mustprogress nounwind uwtable
define linkonce_odr hidden noundef nonnull align 1 dereferenceable(1) ptr @_ZNSt6vectorIhSaIhEEixEm(ptr noundef nonnull align 8 dereferenceable(24) %0, i64 noundef %1) #0 comdat align 2 {
  %3 = alloca ptr, align 8
  %4 = alloca i64, align 8
  store ptr %0, ptr %3, align 8, !tbaa !115
  store i64 %1, ptr %4, align 8, !tbaa !41
  %5 = load ptr, ptr %3, align 8
  %6 = getelementptr inbounds nuw %"struct.std::_Vector_base", ptr %5, i32 0, i32 0
  %7 = getelementptr inbounds nuw %"struct.std::_Vector_base<unsigned char, std::allocator<unsigned char>>::_Vector_impl_data", ptr %6, i32 0, i32 0
  %8 = load ptr, ptr %7, align 8, !tbaa !117
  %9 = load i64, ptr %4, align 8, !tbaa !41
  %10 = getelementptr inbounds nuw i8, ptr %8, i64 %9
  ret ptr %10
}

; Function Attrs: mustprogress nounwind uwtable
define linkonce_odr hidden noundef nonnull align 8 dereferenceable(8) ptr @_ZNKSt6vectorImSaImEEixEm(ptr noundef nonnull align 8 dereferenceable(24) %0, i64 noundef %1) #0 comdat align 2 {
  %3 = alloca ptr, align 8
  %4 = alloca i64, align 8
  store ptr %0, ptr %3, align 8, !tbaa !100
  store i64 %1, ptr %4, align 8, !tbaa !41
  %5 = load ptr, ptr %3, align 8
  %6 = getelementptr inbounds nuw %"struct.std::_Vector_base.4", ptr %5, i32 0, i32 0
  %7 = getelementptr inbounds nuw %"struct.std::_Vector_base<unsigned long, std::allocator<unsigned long>>::_Vector_impl_data", ptr %6, i32 0, i32 0
  %8 = load ptr, ptr %7, align 8, !tbaa !114
  %9 = load i64, ptr %4, align 8, !tbaa !41
  %10 = getelementptr inbounds nuw i64, ptr %8, i64 %9
  ret ptr %10
}

; Function Attrs: mustprogress nounwind uwtable
define linkonce_odr hidden noundef i64 @_ZNKSt6vectorImSaImEE4sizeEv(ptr noundef nonnull align 8 dereferenceable(24) %0) #0 comdat align 2 {
  %2 = alloca ptr, align 8
  store ptr %0, ptr %2, align 8, !tbaa !100
  %3 = load ptr, ptr %2, align 8
  %4 = getelementptr inbounds nuw %"struct.std::_Vector_base.4", ptr %3, i32 0, i32 0
  %5 = getelementptr inbounds nuw %"struct.std::_Vector_base<unsigned long, std::allocator<unsigned long>>::_Vector_impl_data", ptr %4, i32 0, i32 1
  %6 = load ptr, ptr %5, align 8, !tbaa !113
  %7 = getelementptr inbounds nuw %"struct.std::_Vector_base.4", ptr %3, i32 0, i32 0
  %8 = getelementptr inbounds nuw %"struct.std::_Vector_base<unsigned long, std::allocator<unsigned long>>::_Vector_impl_data", ptr %7, i32 0, i32 0
  %9 = load ptr, ptr %8, align 8, !tbaa !114
  %10 = ptrtoint ptr %6 to i64
  %11 = ptrtoint ptr %9 to i64
  %12 = sub i64 %10, %11
  %13 = sdiv exact i64 %12, 8
  ret i64 %13
}

; Function Attrs: mustprogress nounwind uwtable
define void @_ZN2cv22SparseMatConstIteratorC2EPKNS_9SparseMatE(ptr noundef nonnull align 8 dereferenceable(24) %0, ptr noundef %1) unnamed_addr #0 align 2 {
  %3 = alloca ptr, align 8
  %4 = alloca ptr, align 8
  %5 = alloca ptr, align 8
  %6 = alloca ptr, align 8
  %7 = alloca i64, align 8
  %8 = alloca i64, align 8
  %9 = alloca i64, align 8
  %10 = alloca i32, align 4
  store ptr %0, ptr %3, align 8, !tbaa !88
  store ptr %1, ptr %4, align 8, !tbaa !90
  %11 = load ptr, ptr %3, align 8
  %12 = getelementptr inbounds nuw %"class.cv::SparseMatConstIterator", ptr %11, i32 0, i32 0
  %13 = load ptr, ptr %4, align 8, !tbaa !90
  store ptr %13, ptr %12, align 8, !tbaa !92
  %14 = getelementptr inbounds nuw %"class.cv::SparseMatConstIterator", ptr %11, i32 0, i32 1
  store i64 0, ptr %14, align 8, !tbaa !94
  %15 = getelementptr inbounds nuw %"class.cv::SparseMatConstIterator", ptr %11, i32 0, i32 2
  store ptr null, ptr %15, align 8, !tbaa !95
  %16 = load ptr, ptr %4, align 8, !tbaa !90
  %17 = icmp ne ptr %16, null
  br i1 %17, label %18, label %23

18:                                               ; preds = %2
  %19 = load ptr, ptr %4, align 8, !tbaa !90
  %20 = getelementptr inbounds nuw %"class.cv::SparseMat", ptr %19, i32 0, i32 1
  %21 = load ptr, ptr %20, align 8, !tbaa !96
  %22 = icmp ne ptr %21, null
  br i1 %22, label %24, label %23

23:                                               ; preds = %18, %2
  br label %67

24:                                               ; preds = %18
  call void @llvm.lifetime.start.p0(i64 8, ptr %5) #12
  %25 = getelementptr inbounds nuw %"class.cv::SparseMatConstIterator", ptr %11, i32 0, i32 0
  %26 = load ptr, ptr %25, align 8, !tbaa !92
  %27 = getelementptr inbounds nuw %"class.cv::SparseMat", ptr %26, i32 0, i32 1
  %28 = load ptr, ptr %27, align 8, !tbaa !96
  store ptr %28, ptr %5, align 8, !tbaa !99
  call void @llvm.lifetime.start.p0(i64 8, ptr %6) #12
  %29 = load ptr, ptr %5, align 8, !tbaa !99
  %30 = getelementptr inbounds nuw %"struct.cv::SparseMat::Hdr", ptr %29, i32 0, i32 7
  store ptr %30, ptr %6, align 8, !tbaa !100
  call void @llvm.lifetime.start.p0(i64 8, ptr %7) #12
  call void @llvm.lifetime.start.p0(i64 8, ptr %8) #12
  %31 = load ptr, ptr %6, align 8, !tbaa !100
  %32 = call noundef i64 @_ZNKSt6vectorImSaImEE4sizeEv(ptr noundef nonnull align 8 dereferenceable(24) %31) #12
  store i64 %32, ptr %8, align 8, !tbaa !41
  store i64 0, ptr %7, align 8, !tbaa !41
  br label %33

33:                                               ; preds = %61, %24
  %34 = load i64, ptr %7, align 8, !tbaa !41
  %35 = load i64, ptr %8, align 8, !tbaa !41
  %36 = icmp ult i64 %34, %35
  br i1 %36, label %37, label %64

37:                                               ; preds = %33
  call void @llvm.lifetime.start.p0(i64 8, ptr %9) #12
  %38 = load ptr, ptr %6, align 8, !tbaa !100
  %39 = load i64, ptr %7, align 8, !tbaa !41
  %40 = call noundef nonnull align 8 dereferenceable(8) ptr @_ZNKSt6vectorImSaImEEixEm(ptr noundef nonnull align 8 dereferenceable(24) %38, i64 noundef %39) #12
  %41 = load i64, ptr %40, align 8, !tbaa !41
  store i64 %41, ptr %9, align 8, !tbaa !41
  %42 = load i64, ptr %9, align 8, !tbaa !41
  %43 = icmp ne i64 %42, 0
  br i1 %43, label %44, label %57

44:                                               ; preds = %37
  %45 = load i64, ptr %7, align 8, !tbaa !41
  %46 = getelementptr inbounds nuw %"class.cv::SparseMatConstIterator", ptr %11, i32 0, i32 1
  store i64 %45, ptr %46, align 8, !tbaa !94
  %47 = load ptr, ptr %5, align 8, !tbaa !99
  %48 = getelementptr inbounds nuw %"struct.cv::SparseMat::Hdr", ptr %47, i32 0, i32 6
  %49 = load i64, ptr %9, align 8, !tbaa !41
  %50 = call noundef nonnull align 1 dereferenceable(1) ptr @_ZNSt6vectorIhSaIhEEixEm(ptr noundef nonnull align 8 dereferenceable(24) %48, i64 noundef %49) #12
  %51 = load ptr, ptr %5, align 8, !tbaa !99
  %52 = getelementptr inbounds nuw %"struct.cv::SparseMat::Hdr", ptr %51, i32 0, i32 2
  %53 = load i32, ptr %52, align 8, !tbaa !102
  %54 = sext i32 %53 to i64
  %55 = getelementptr inbounds i8, ptr %50, i64 %54
  %56 = getelementptr inbounds nuw %"class.cv::SparseMatConstIterator", ptr %11, i32 0, i32 2
  store ptr %55, ptr %56, align 8, !tbaa !95
  store i32 1, ptr %10, align 4
  br label %58

57:                                               ; preds = %37
  store i32 0, ptr %10, align 4
  br label %58

58:                                               ; preds = %57, %44
  call void @llvm.lifetime.end.p0(i64 8, ptr %9) #12
  %59 = load i32, ptr %10, align 4
  switch i32 %59, label %65 [
    i32 0, label %60
  ]

60:                                               ; preds = %58
  br label %61

61:                                               ; preds = %60
  %62 = load i64, ptr %7, align 8, !tbaa !41
  %63 = add i64 %62, 1
  store i64 %63, ptr %7, align 8, !tbaa !41
  br label %33, !llvm.loop !112

64:                                               ; preds = %33
  store i32 0, ptr %10, align 4
  br label %65

65:                                               ; preds = %64, %58
  call void @llvm.lifetime.end.p0(i64 8, ptr %8) #12
  call void @llvm.lifetime.end.p0(i64 8, ptr %7) #12
  call void @llvm.lifetime.end.p0(i64 8, ptr %6) #12
  call void @llvm.lifetime.end.p0(i64 8, ptr %5) #12
  %66 = load i32, ptr %10, align 4
  switch i32 %66, label %68 [
    i32 0, label %67
    i32 1, label %67
  ]

67:                                               ; preds = %23, %65, %65
  ret void

68:                                               ; preds = %65
  unreachable
}