; Function Attrs: mustprogress nofree norecurse nosync nounwind memory(read, argmem: readwrite, inaccessiblemem: none) uwtable
define void @_ZN2cv22SparseMatConstIteratorC2EPKNS_9SparseMatE(ptr noundef nonnull writeonly align 8 captures(none) dereferenceable(24) initializes((0, 24)) %0, ptr noundef %1) unnamed_addr #9 align 2 {
  store ptr %1, ptr %0, align 8, !tbaa !70
  %3 = getelementptr inbounds nuw i8, ptr %0, i64 8
  %4 = getelementptr inbounds nuw i8, ptr %0, i64 16
  %.not = icmp eq ptr %1, null
  tail call void @llvm.memset.p0.i64(ptr noundef nonnull align 8 dereferenceable(16) %3, i8 0, i64 16, i1 false)
  br i1 %.not, label %.loopexit, label %5

5:                                                ; preds = %2
  %6 = getelementptr inbounds nuw i8, ptr %1, i64 8
  %7 = load ptr, ptr %6, align 8, !tbaa !73
  %.not19 = icmp eq ptr %7, null
  br i1 %.not19, label %.loopexit, label %8

8:                                                ; preds = %5
  %9 = getelementptr inbounds nuw i8, ptr %7, i64 64
  %10 = getelementptr inbounds nuw i8, ptr %7, i64 72
  %11 = load ptr, ptr %10, align 8, !tbaa !76
  %12 = load ptr, ptr %9, align 8, !tbaa !78
  %.not23 = icmp eq ptr %11, %12
  br i1 %.not23, label %.loopexit, label %.lr.ph.preheader

.lr.ph.preheader:                                 ; preds = %8
  %13 = ptrtoint ptr %11 to i64
  %14 = ptrtoint ptr %12 to i64
  %15 = sub i64 %13, %14
  %16 = ashr exact i64 %15, 3
  %umax = tail call i64 @llvm.umax.i64(i64 %16, i64 1)
  br label %.lr.ph

.lr.ph:                                           ; preds = %.lr.ph.preheader, %.critedge
  %.01622 = phi i64 [ %27, %.critedge ], [ 0, %.lr.ph.preheader ]
  %17 = getelementptr inbounds nuw i64, ptr %12, i64 %.01622
  %18 = load i64, ptr %17, align 8, !tbaa !42
  %.not20 = icmp eq i64 %18, 0
  br i1 %.not20, label %.critedge, label %19

19:                                               ; preds = %.lr.ph
  store i64 %.01622, ptr %3, align 8, !tbaa !79
  %20 = getelementptr inbounds nuw i8, ptr %7, i64 40
  %21 = load ptr, ptr %20, align 8, !tbaa !80
  %22 = getelementptr inbounds nuw i8, ptr %21, i64 %18
  %23 = getelementptr inbounds nuw i8, ptr %7, i64 8
  %24 = load i32, ptr %23, align 8, !tbaa !82
  %25 = sext i32 %24 to i64
  %26 = getelementptr inbounds i8, ptr %22, i64 %25
  store ptr %26, ptr %4, align 8, !tbaa !90
  br label %.loopexit

.critedge:                                        ; preds = %.lr.ph
  %27 = add nuw i64 %.01622, 1
  %exitcond.not = icmp eq i64 %27, %umax
  br i1 %exitcond.not, label %.loopexit, label %.lr.ph, !llvm.loop !91

.loopexit:                                        ; preds = %.critedge, %8, %19, %2, %5
  ret void
}